; Function Attrs: mustprogress nounwind uwtable
define dso_local void @_ZN4llvm22BlockFrequencyAnalysis3runERNS_8FunctionERNS_15AnalysisManagerIS1_JEEE(ptr dead_on_unwind noalias writable sret(%"class.llvm::BlockFrequencyInfo") align 8 %0, ptr nocapture noundef nonnull readnone align 1 dereferenceable(1) %1, ptr noundef nonnull align 8 dereferenceable(136) %2, ptr noundef nonnull align 8 dereferenceable(72) %3) local_unnamed_addr #0 align 2 {
  %5 = tail call noundef nonnull align 8 dereferenceable(8) ptr @_ZN4llvm15AnalysisManagerINS_8FunctionEJEE13getResultImplEPNS_11AnalysisKeyERS1_(ptr noundef nonnull align 8 dereferenceable(72) %3, ptr noundef nonnull @_ZN4llvm25BranchProbabilityAnalysis3KeyE, ptr noundef nonnull align 8 dereferenceable(136) %2) #23
  %6 = getelementptr inbounds nuw i8, ptr %5, i64 8
  %7 = tail call noundef nonnull align 8 dereferenceable(8) ptr @_ZN4llvm15AnalysisManagerINS_8FunctionEJEE13getResultImplEPNS_11AnalysisKeyERS1_(ptr noundef nonnull align 8 dereferenceable(72) %3, ptr noundef nonnull @_ZN4llvm12LoopAnalysis3KeyE, ptr noundef nonnull align 8 dereferenceable(136) %2) #23
  %8 = getelementptr inbounds nuw i8, ptr %7, i64 8
  tail call void @_ZN4llvm18BlockFrequencyInfoC1Ev(ptr noundef nonnull align 8 dereferenceable(8) %0) #23
  tail call void @_ZN4llvm18BlockFrequencyInfo9calculateERKNS_8FunctionERKNS_21BranchProbabilityInfoERKNS_8LoopInfoE(ptr noundef nonnull align 8 dereferenceable(8) %0, ptr noundef nonnull align 8 dereferenceable(136) %2, ptr noundef nonnull align 8 dereferenceable(248) %6, ptr noundef nonnull align 8 dereferenceable(144) %8)
  ret void
}